target datalayout = "e-m:e-p270:32:32-p271:32:32-p272:64:64-i64:64-i128:128-f80:128-n8:16:32:64-S128"
target triple = "x86_64-pc-linux-gnu"

%struct.mbedtls_ssl_cookie_ctx = type { %struct.mbedtls_md_context_t, i64 }
%struct.mbedtls_md_context_t = type { ptr, ptr, ptr }

; Function Attrs: inlinehint nounwind uwtable
define internal i32 @mbedtls_ssl_chk_buf_ptr(ptr noundef %0, ptr noundef %1, i64 noundef %2) #3 {
  %4 = alloca ptr, align 8
  %5 = alloca ptr, align 8
  %6 = alloca i64, align 8
  store ptr %0, ptr %4, align 8, !tbaa !20
  store ptr %1, ptr %5, align 8, !tbaa !20
  store i64 %2, ptr %6, align 8, !tbaa !13
  %7 = load ptr, ptr %4, align 8, !tbaa !20
  %8 = load ptr, ptr %5, align 8, !tbaa !20
  %9 = icmp ugt ptr %7, %8
  br i1 %9, label %18, label %10

10:                                               ; preds = %3
  %11 = load i64, ptr %6, align 8, !tbaa !13
  %12 = load ptr, ptr %5, align 8, !tbaa !20
  %13 = load ptr, ptr %4, align 8, !tbaa !20
  %14 = ptrtoint ptr %12 to i64
  %15 = ptrtoint ptr %13 to i64
  %16 = sub i64 %14, %15
  %17 = icmp ugt i64 %11, %16
  br label %18

18:                                               ; preds = %10, %3
  %19 = phi i1 [ true, %3 ], [ %17, %10 ]
  %20 = zext i1 %19 to i32
  ret i32 %20
}

; Function Attrs: alwaysinline nounwind uwtable
define internal i32 @mbedtls_get_unaligned_uint32(ptr noundef %0) #5 {
  %2 = alloca ptr, align 8
  %3 = alloca i32, align 4
  store ptr %0, ptr %2, align 8, !tbaa !14
  call void @llvm.lifetime.start.p0(i64 4, ptr %3) #8
  %4 = load ptr, ptr %2, align 8, !tbaa !14
  call void @llvm.memcpy.p0.p0.i64(ptr align 4 %3, ptr align 1 %4, i64 4, i1 false)
  %5 = load i32, ptr %3, align 4, !tbaa !15
  call void @llvm.lifetime.end.p0(i64 4, ptr %3) #8
  ret i32 %5
}

; Function Attrs: nounwind uwtable
define internal i32 @ssl_cookie_hmac(ptr noundef %0, ptr noundef %1, ptr noundef %2, ptr noundef %3, ptr noundef %4, i64 noundef %5) #0 {
  %7 = alloca i32, align 4
  %8 = alloca ptr, align 8
  %9 = alloca ptr, align 8
  %10 = alloca ptr, align 8
  %11 = alloca ptr, align 8
  %12 = alloca ptr, align 8
  %13 = alloca i64, align 8
  %14 = alloca [32 x i8], align 16
  %15 = alloca i32, align 4
  store ptr %0, ptr %8, align 8, !tbaa !22
  store ptr %1, ptr %9, align 8, !tbaa !20
  store ptr %2, ptr %10, align 8, !tbaa !17
  store ptr %3, ptr %11, align 8, !tbaa !20
  store ptr %4, ptr %12, align 8, !tbaa !20
  store i64 %5, ptr %13, align 8, !tbaa !13
  call void @llvm.lifetime.start.p0(i64 32, ptr %14) #8
  br label %16

16:                                               ; preds = %6
  %17 = load ptr, ptr %10, align 8, !tbaa !17
  %18 = load ptr, ptr %17, align 8, !tbaa !20
  %19 = load ptr, ptr %11, align 8, !tbaa !20
  %20 = call i32 @mbedtls_ssl_chk_buf_ptr(ptr noundef %18, ptr noundef %19, i64 noundef 28)
  %21 = icmp ne i32 %20, 0
  br i1 %21, label %22, label %23

22:                                               ; preds = %16
  store i32 -27136, ptr %7, align 4
  store i32 1, ptr %15, align 4
  br label %53

23:                                               ; preds = %16
  br label %24

24:                                               ; preds = %23
  br label %25

25:                                               ; preds = %24
  %26 = load ptr, ptr %8, align 8, !tbaa !22
  %27 = call i32 @mbedtls_md_hmac_reset(ptr noundef %26)
  %28 = icmp ne i32 %27, 0
  br i1 %28, label %45, label %29

29:                                               ; preds = %25
  %30 = load ptr, ptr %8, align 8, !tbaa !22
  %31 = load ptr, ptr %9, align 8, !tbaa !20
  %32 = call i32 @mbedtls_md_hmac_update(ptr noundef %30, ptr noundef %31, i64 noundef 4)
  %33 = icmp ne i32 %32, 0
  br i1 %33, label %45, label %34

34:                                               ; preds = %29
  %35 = load ptr, ptr %8, align 8, !tbaa !22
  %36 = load ptr, ptr %12, align 8, !tbaa !20
  %37 = load i64, ptr %13, align 8, !tbaa !13
  %38 = call i32 @mbedtls_md_hmac_update(ptr noundef %35, ptr noundef %36, i64 noundef %37)
  %39 = icmp ne i32 %38, 0
  br i1 %39, label %45, label %40

40:                                               ; preds = %34
  %41 = load ptr, ptr %8, align 8, !tbaa !22
  %42 = getelementptr inbounds [32 x i8], ptr %14, i64 0, i64 0
  %43 = call i32 @mbedtls_md_hmac_finish(ptr noundef %41, ptr noundef %42)
  %44 = icmp ne i32 %43, 0
  br i1 %44, label %45, label %46

45:                                               ; preds = %40, %34, %29, %25
  store i32 -27648, ptr %7, align 4
  store i32 1, ptr %15, align 4
  br label %53

46:                                               ; preds = %40
  %47 = load ptr, ptr %10, align 8, !tbaa !17
  %48 = load ptr, ptr %47, align 8, !tbaa !20
  %49 = getelementptr inbounds [32 x i8], ptr %14, i64 0, i64 0
  call void @llvm.memcpy.p0.p0.i64(ptr align 1 %48, ptr align 16 %49, i64 28, i1 false)
  %50 = load ptr, ptr %10, align 8, !tbaa !17
  %51 = load ptr, ptr %50, align 8, !tbaa !20
  %52 = getelementptr inbounds i8, ptr %51, i64 28
  store ptr %52, ptr %50, align 8, !tbaa !20
  store i32 0, ptr %7, align 4
  store i32 1, ptr %15, align 4
  br label %53

53:                                               ; preds = %46, %45, %22
  call void @llvm.lifetime.end.p0(i64 32, ptr %14) #8
  %54 = load i32, ptr %7, align 4
  ret i32 %54
}

; Function Attrs: nounwind uwtable
define hidden i32 @mbedtls_ssl_cookie_check(ptr noundef %0, ptr noundef %1, i64 noundef %2, ptr noundef %3, i64 noundef %4) #0 {
  %6 = alloca i32, align 4
  %7 = alloca ptr, align 8
  %8 = alloca ptr, align 8
  %9 = alloca i64, align 8
  %10 = alloca ptr, align 8
  %11 = alloca i64, align 8
  %12 = alloca [28 x i8], align 16
  %13 = alloca ptr, align 8
  %14 = alloca i32, align 4
  %15 = alloca ptr, align 8
  %16 = alloca i64, align 8
  %17 = alloca i64, align 8
  %18 = alloca i32, align 4
  store ptr %0, ptr %7, align 8, !tbaa !14
  store ptr %1, ptr %8, align 8, !tbaa !20
  store i64 %2, ptr %9, align 8, !tbaa !13
  store ptr %3, ptr %10, align 8, !tbaa !20
  store i64 %4, ptr %11, align 8, !tbaa !13
  call void @llvm.lifetime.start.p0(i64 28, ptr %12) #8
  call void @llvm.lifetime.start.p0(i64 8, ptr %13) #8
  %19 = getelementptr inbounds [28 x i8], ptr %12, i64 0, i64 0
  store ptr %19, ptr %13, align 8, !tbaa !20
  call void @llvm.lifetime.start.p0(i64 4, ptr %14) #8
  store i32 0, ptr %14, align 4, !tbaa !15
  call void @llvm.lifetime.start.p0(i64 8, ptr %15) #8
  %20 = load ptr, ptr %7, align 8, !tbaa !14
  store ptr %20, ptr %15, align 8, !tbaa !3
  call void @llvm.lifetime.start.p0(i64 8, ptr %16) #8
  call void @llvm.lifetime.start.p0(i64 8, ptr %17) #8
  %21 = load ptr, ptr %15, align 8, !tbaa !3
  %22 = icmp eq ptr %21, null
  br i1 %22, label %26, label %23

23:                                               ; preds = %5
  %24 = load ptr, ptr %10, align 8, !tbaa !20
  %25 = icmp eq ptr %24, null
  br i1 %25, label %26, label %27

26:                                               ; preds = %23, %5
  store i32 -28928, ptr %6, align 4
  store i32 1, ptr %18, align 4
  br label %77

27:                                               ; preds = %23
  %28 = load i64, ptr %9, align 8, !tbaa !13
  %29 = icmp ne i64 %28, 32
  br i1 %29, label %30, label %31

30:                                               ; preds = %27
  store i32 -1, ptr %6, align 4
  store i32 1, ptr %18, align 4
  br label %77

31:                                               ; preds = %27
  %32 = load ptr, ptr %15, align 8, !tbaa !3
  %33 = getelementptr inbounds nuw %struct.mbedtls_ssl_cookie_ctx, ptr %32, i32 0, i32 0
  %34 = load ptr, ptr %8, align 8, !tbaa !20
  %35 = load ptr, ptr %13, align 8, !tbaa !20
  %36 = getelementptr inbounds nuw i8, ptr %35, i64 28
  %37 = load ptr, ptr %10, align 8, !tbaa !20
  %38 = load i64, ptr %11, align 8, !tbaa !13
  %39 = call i32 @ssl_cookie_hmac(ptr noundef %33, ptr noundef %34, ptr noundef %13, ptr noundef %36, ptr noundef %37, i64 noundef %38)
  %40 = icmp ne i32 %39, 0
  br i1 %40, label %41, label %42

41:                                               ; preds = %31
  store i32 -1, ptr %14, align 4, !tbaa !15
  br label %42

42:                                               ; preds = %41, %31
  %43 = load i32, ptr %14, align 4, !tbaa !15
  %44 = icmp ne i32 %43, 0
  br i1 %44, label %45, label %46

45:                                               ; preds = %42
  br label %74

46:                                               ; preds = %42
  %47 = load ptr, ptr %8, align 8, !tbaa !20
  %48 = getelementptr inbounds i8, ptr %47, i64 4
  %49 = getelementptr inbounds [28 x i8], ptr %12, i64 0, i64 0
  %50 = call i32 @mbedtls_ct_memcmp(ptr noundef %48, ptr noundef %49, i64 noundef 28)
  %51 = icmp ne i32 %50, 0
  br i1 %51, label %52, label %53

52:                                               ; preds = %46
  store i32 -1, ptr %14, align 4, !tbaa !15
  br label %74

53:                                               ; preds = %46
  %54 = call i64 @time(ptr noundef null) #8
  store i64 %54, ptr %16, align 8, !tbaa !13
  %55 = load ptr, ptr %8, align 8, !tbaa !20
  %56 = getelementptr inbounds i8, ptr %55, i64 0
  %57 = call i32 @mbedtls_get_unaligned_uint32(ptr noundef %56)
  %58 = call i32 @llvm.bswap.i32(i32 %57)
  %59 = zext i32 %58 to i64
  store i64 %59, ptr %17, align 8, !tbaa !13
  %60 = load ptr, ptr %15, align 8, !tbaa !3
  %61 = getelementptr inbounds nuw %struct.mbedtls_ssl_cookie_ctx, ptr %60, i32 0, i32 1
  %62 = load i64, ptr %61, align 8, !tbaa !8
  %63 = icmp ne i64 %62, 0
  br i1 %63, label %64, label %73

64:                                               ; preds = %53
  %65 = load i64, ptr %16, align 8, !tbaa !13
  %66 = load i64, ptr %17, align 8, !tbaa !13
  %67 = sub i64 %65, %66
  %68 = load ptr, ptr %15, align 8, !tbaa !3
  %69 = getelementptr inbounds nuw %struct.mbedtls_ssl_cookie_ctx, ptr %68, i32 0, i32 1
  %70 = load i64, ptr %69, align 8, !tbaa !8
  %71 = icmp ugt i64 %67, %70
  br i1 %71, label %72, label %73

72:                                               ; preds = %64
  store i32 -1, ptr %14, align 4, !tbaa !15
  br label %74

73:                                               ; preds = %64, %53
  br label %74

74:                                               ; preds = %73, %72, %52, %45
  %75 = getelementptr inbounds [28 x i8], ptr %12, i64 0, i64 0
  call void @mbedtls_platform_zeroize(ptr noundef %75, i64 noundef 28)
  %76 = load i32, ptr %14, align 4, !tbaa !15
  store i32 %76, ptr %6, align 4
  store i32 1, ptr %18, align 4
  br label %77

77:                                               ; preds = %74, %30, %26
  call void @llvm.lifetime.end.p0(i64 8, ptr %17) #8
  call void @llvm.lifetime.end.p0(i64 8, ptr %16) #8
  call void @llvm.lifetime.end.p0(i64 8, ptr %15) #8
  call void @llvm.lifetime.end.p0(i64 4, ptr %14) #8
  call void @llvm.lifetime.end.p0(i64 8, ptr %13) #8
  call void @llvm.lifetime.end.p0(i64 28, ptr %12) #8
  %78 = load i32, ptr %6, align 4
  ret i32 %78
}