; Function Attrs: nounwind uwtable
define hidden range(i32 -28928, 1) i32 @mbedtls_ssl_cookie_check(ptr noundef %0, ptr noundef %1, i64 noundef %2, ptr noundef %3, i64 noundef %4) local_unnamed_addr #0 {
  %6 = alloca [32 x i8], align 16
  %7 = alloca [28 x i8], align 16
  call void @llvm.lifetime.start.p0(i64 28, ptr nonnull %7) #7
  %8 = icmp eq ptr %0, null
  %9 = icmp eq ptr %3, null
  %or.cond = or i1 %8, %9
  br i1 %or.cond, label %32, label %10

10:                                               ; preds = %5
  %.not = icmp eq i64 %2, 32
  br i1 %.not, label %11, label %32

11:                                               ; preds = %10
  call void @llvm.lifetime.start.p0(i64 32, ptr nonnull %6) #7
  %12 = tail call i32 @mbedtls_md_hmac_reset(ptr noundef nonnull %0) #7
  %.not11.i = icmp eq i32 %12, 0
  br i1 %.not11.i, label %13, label %ssl_cookie_hmac.exit.thread

13:                                               ; preds = %11
  %14 = tail call i32 @mbedtls_md_hmac_update(ptr noundef nonnull %0, ptr noundef %1, i64 noundef 4) #7
  %.not12.i = icmp eq i32 %14, 0
  br i1 %.not12.i, label %15, label %ssl_cookie_hmac.exit.thread

15:                                               ; preds = %13
  %16 = tail call i32 @mbedtls_md_hmac_update(ptr noundef nonnull %0, ptr noundef nonnull %3, i64 noundef %4) #7
  %.not13.i = icmp eq i32 %16, 0
  br i1 %.not13.i, label %17, label %ssl_cookie_hmac.exit.thread

17:                                               ; preds = %15
  %18 = call i32 @mbedtls_md_hmac_finish(ptr noundef nonnull %0, ptr noundef nonnull %6) #7
  %.not14.i = icmp eq i32 %18, 0
  br i1 %.not14.i, label %19, label %ssl_cookie_hmac.exit.thread

ssl_cookie_hmac.exit.thread:                      ; preds = %17, %15, %13, %11
  call void @llvm.lifetime.end.p0(i64 32, ptr nonnull %6) #7
  br label %31

19:                                               ; preds = %17
  call void @llvm.memcpy.p0.p0.i64(ptr noundef nonnull align 16 dereferenceable(28) %7, ptr noundef nonnull align 16 dereferenceable(28) %6, i64 28, i1 false)
  call void @llvm.lifetime.end.p0(i64 32, ptr nonnull %6) #7
  %20 = getelementptr inbounds nuw i8, ptr %1, i64 4
  %21 = call i32 @mbedtls_ct_memcmp(ptr noundef nonnull %20, ptr noundef nonnull %7, i64 noundef 28) #7
  %.not23 = icmp eq i32 %21, 0
  br i1 %.not23, label %22, label %31

22:                                               ; preds = %19
  %23 = call i64 @time(ptr noundef null) #7
  %24 = getelementptr inbounds nuw i8, ptr %0, i64 24
  %25 = load i64, ptr %24, align 8, !tbaa !3
  %.not24 = icmp eq i64 %25, 0
  br i1 %.not24, label %31, label %26

26:                                               ; preds = %22
  %.0.copyload.i = load i32, ptr %1, align 1
  %27 = call i32 @llvm.bswap.i32(i32 %.0.copyload.i)
  %28 = zext i32 %27 to i64
  %29 = sub i64 %23, %28
  %30 = icmp ugt i64 %29, %25
  %spec.select = sext i1 %30 to i32
  br label %31

31:                                               ; preds = %ssl_cookie_hmac.exit.thread, %26, %19, %22
  %.1 = phi i32 [ 0, %22 ], [ -1, %19 ], [ %spec.select, %26 ], [ -1, %ssl_cookie_hmac.exit.thread ]
  call void @mbedtls_platform_zeroize(ptr noundef nonnull %7, i64 noundef 28) #7
  br label %32

32:                                               ; preds = %10, %5, %31
  %.0 = phi i32 [ %.1, %31 ], [ -28928, %5 ], [ -1, %10 ]
  call void @llvm.lifetime.end.p0(i64 28, ptr nonnull %7) #7
  ret i32 %.0
}